target datalayout = "e-m:e-p270:32:32-p271:32:32-p272:64:64-i64:64-i128:128-f80:128-n8:16:32:64-S128"
target triple = "x86_64-pc-linux-gnu"

%struct.AVCodecContext = type { ptr, i32, i32, ptr, i32, i32, ptr, ptr, ptr, i64, i32, i32, ptr, i32, %struct.AVRational, %struct.AVRational, %struct.AVRational, i32, i32, i32, i32, i32, %struct.AVRational, i32, i32, i32, i32, i32, i32, i32, i32, i32, i32, i32, ptr, ptr, i32, float, float, float, float, float, float, float, float, float, i32, i32, i32, i32, i32, i32, i32, i32, i32, i32, i32, i32, ptr, ptr, ptr, i32, i32, i32, i32, i32, i32, i32, i32, i32, i32, %struct.AVChannelLayout, i32, i32, i32, i32, i32, i32, i32, i32, ptr, i32, i32, i32, float, float, i32, i32, i32, i32, i32, ptr, i64, i64, float, float, i32, i32, ptr, ptr, i32, i32, i32, i32, i32, ptr, ptr, ptr, ptr, i32, i32, [8 x i64], i32, i32, i32, i32, i32, i32, i32, ptr, ptr, i32, i32, i32, i32, i32, i32, i32, i32, i32, i32, ptr, ptr, i32, i32, ptr, ptr, ptr, ptr, i32, i32, i64, i32, i32, i64, ptr, i64, ptr, i32, ptr, i32 }
%struct.AVRational = type { i32, i32 }
%struct.AVChannelLayout = type { i32, i32, %union.anon.1, ptr }
%union.anon.1 = type { i64 }
%struct.TiffContext = type { ptr, ptr, %struct.GetByteContext, ptr, ptr, ptr, i32, i16, i32, i32, i32, i32, i32, i32, [256 x i32], i32, i32, i32, i32, i32, [2 x i32], i32, i32, i32, [4 x i32], i32, i32, i32, i32, [4 x i8], [4 x float], [4 x float], [4 x float], [3 x [4 x float]], [4 x [4 x float]], [4 x float], [4 x float], i32, [65536 x i16], i32, i16, i32, i32, i32, i32, i32, i32, i32, i32, ptr, i32, i32, i32, i32, i32, i32, ptr, i32, ptr, i32, i32, ptr }
%struct.GetByteContext = type { ptr, ptr, ptr }

; Function Attrs: cold nounwind optsize uwtable
define internal i32 @tiff_end(ptr noundef %0) #0 {
  %2 = alloca ptr, align 8
  %3 = alloca ptr, align 8
  store ptr %0, ptr %2, align 8, !tbaa !4
  call void @llvm.lifetime.start.p0(i64 8, ptr %3) #13
  %4 = load ptr, ptr %2, align 8, !tbaa !4
  %5 = getelementptr inbounds nuw %struct.AVCodecContext, ptr %4, i32 0, i32 6
  %6 = load ptr, ptr %5, align 8, !tbaa !9
  store ptr %6, ptr %3, align 8, !tbaa !29
  %7 = load ptr, ptr %3, align 8, !tbaa !29
  call void @free_geotags(ptr noundef %7)
  %8 = load ptr, ptr %3, align 8, !tbaa !29
  %9 = getelementptr inbounds nuw %struct.TiffContext, ptr %8, i32 0, i32 49
  call void @ff_lzw_decode_close(ptr noundef %9)
  %10 = load ptr, ptr %3, align 8, !tbaa !29
  %11 = getelementptr inbounds nuw %struct.TiffContext, ptr %10, i32 0, i32 56
  call void @av_freep(ptr noundef %11)
  %12 = load ptr, ptr %3, align 8, !tbaa !29
  %13 = getelementptr inbounds nuw %struct.TiffContext, ptr %12, i32 0, i32 57
  store i32 0, ptr %13, align 8, !tbaa !154
  %14 = load ptr, ptr %3, align 8, !tbaa !29
  %15 = getelementptr inbounds nuw %struct.TiffContext, ptr %14, i32 0, i32 58
  call void @av_freep(ptr noundef %15)
  %16 = load ptr, ptr %3, align 8, !tbaa !29
  %17 = getelementptr inbounds nuw %struct.TiffContext, ptr %16, i32 0, i32 59
  store i32 0, ptr %17, align 8, !tbaa !155
  %18 = load ptr, ptr %3, align 8, !tbaa !29
  %19 = getelementptr inbounds nuw %struct.TiffContext, ptr %18, i32 0, i32 5
  call void @av_frame_free(ptr noundef %19)
  %20 = load ptr, ptr %3, align 8, !tbaa !29
  %21 = getelementptr inbounds nuw %struct.TiffContext, ptr %20, i32 0, i32 4
  call void @av_packet_free(ptr noundef %21)
  %22 = load ptr, ptr %3, align 8, !tbaa !29
  %23 = getelementptr inbounds nuw %struct.TiffContext, ptr %22, i32 0, i32 3
  call void @avcodec_free_context(ptr noundef %23)
  call void @llvm.lifetime.end.p0(i64 8, ptr %3) #13
  ret i32 0
}