; Function Attrs: cold nounwind optsize uwtable
define internal noundef i32 @tiff_end(ptr noundef readonly captures(none) %0) #0 {
  %2 = getelementptr inbounds nuw i8, ptr %0, i64 32
  %3 = load ptr, ptr %2, align 8, !tbaa !4
  tail call fastcc void @free_geotags(ptr noundef %3)
  %4 = getelementptr inbounds nuw i8, ptr %3, i64 132504
  tail call void @ff_lzw_decode_close(ptr noundef nonnull %4) #16
  %5 = getelementptr inbounds nuw i8, ptr %3, i64 132536
  tail call void @av_freep(ptr noundef nonnull %5) #16
  %6 = getelementptr inbounds nuw i8, ptr %3, i64 132544
  store i32 0, ptr %6, align 8, !tbaa !220
  %7 = getelementptr inbounds nuw i8, ptr %3, i64 132552
  tail call void @av_freep(ptr noundef nonnull %7) #16
  %8 = getelementptr inbounds nuw i8, ptr %3, i64 132560
  store i32 0, ptr %8, align 8, !tbaa !185
  %9 = getelementptr inbounds nuw i8, ptr %3, i64 56
  tail call void @av_frame_free(ptr noundef nonnull %9) #16
  %10 = getelementptr inbounds nuw i8, ptr %3, i64 48
  tail call void @av_packet_free(ptr noundef nonnull %10) #16
  %11 = getelementptr inbounds nuw i8, ptr %3, i64 40
  tail call void @avcodec_free_context(ptr noundef nonnull %11) #16
  ret i32 0
}